; ModuleID = '37/1932.c'
source_filename = "37/1932.c"
target datalayout = "e-m:e-p270:32:32-p271:32:32-p272:64:64-i64:64-f80:128-n8:16:32:64-S128"
target triple = "x86_64-pc-linux-gnu"

@.str = private unnamed_addr constant [3 x i8] c"%d\00", align 1
@.str.1 = private unnamed_addr constant [3 x i8] c"%s\00", align 1
@.str.2 = private unnamed_addr constant [4 x i8] c"%c\0A\00", align 1
@.str.3 = private unnamed_addr constant [4 x i8] c"no\0A\00", align 1

; Function Attrs: noinline nounwind uwtable
define dso_local i32 @main() #0 {
  %1 = alloca i32, align 4
  %2 = alloca i32, align 4
  %3 = alloca i32, align 4
  %4 = alloca i32, align 4
  %5 = alloca i32, align 4
  %6 = alloca i32, align 4
  %7 = alloca i32, align 4
  %8 = alloca i32, align 4
  %9 = alloca [100001 x i32], align 16
  %10 = alloca [100001 x i8], align 16
  store i32 0, i32* %1, align 4
  %11 = call i32 (i8*, ...) @__isoc99_scanf(i8* getelementptr inbounds ([3 x i8], [3 x i8]* @.str, i64 0, i64 0), i32* %5)
  store i32 1, i32* %2, align 4
  br label %12

12:                                               ; preds = %93, %0
  %13 = load i32, i32* %2, align 4
  %14 = load i32, i32* %5, align 4
  %15 = icmp sle i32 %13, %14
  br i1 %15, label %16, label %96

16:                                               ; preds = %12
  %17 = getelementptr inbounds [100001 x i8], [100001 x i8]* %10, i64 0, i64 0
  call void @llvm.memset.p0i8.i64(i8* align 16 %17, i8 0, i64 100001, i1 false)
  %18 = getelementptr inbounds [100001 x i8], [100001 x i8]* %10, i64 0, i64 0
  %19 = call i32 (i8*, ...) @__isoc99_scanf(i8* getelementptr inbounds ([3 x i8], [3 x i8]* @.str.1, i64 0, i64 0), i8* %18)
  %20 = getelementptr inbounds [100001 x i8], [100001 x i8]* %10, i64 0, i64 0
  %21 = call i64 @strlen(i8* %20) #4
  %22 = trunc i64 %21 to i32
  store i32 %22, i32* %8, align 4
  %23 = getelementptr inbounds [100001 x i32], [100001 x i32]* %9, i64 0, i64 0
  %24 = bitcast i32* %23 to i8*
  call void @llvm.memset.p0i8.i64(i8* align 16 %24, i8 0, i64 400004, i1 false)
  store i32 0, i32* %3, align 4
  br label %25

25:                                               ; preds = %59, %16
  %26 = load i32, i32* %3, align 4
  %27 = load i32, i32* %8, align 4
  %28 = sub nsw i32 %27, 1
  %29 = icmp sle i32 %26, %28
  br i1 %29, label %30, label %62

30:                                               ; preds = %25
  store i32 0, i32* %4, align 4
  br label %31

31:                                               ; preds = %55, %30
  %32 = load i32, i32* %4, align 4
  %33 = load i32, i32* %8, align 4
  %34 = sub nsw i32 %33, 1
  %35 = icmp sle i32 %32, %34
  br i1 %35, label %36, label %58

36:                                               ; preds = %31
  %37 = load i32, i32* %3, align 4
  %38 = sext i32 %37 to i64
  %39 = getelementptr inbounds [100001 x i8], [100001 x i8]* %10, i64 0, i64 %38
  %40 = load i8, i8* %39, align 1
  %41 = sext i8 %40 to i32
  %42 = load i32, i32* %4, align 4
  %43 = sext i32 %42 to i64
  %44 = getelementptr inbounds [100001 x i8], [100001 x i8]* %10, i64 0, i64 %43
  %45 = load i8, i8* %44, align 1
  %46 = sext i8 %45 to i32
  %47 = icmp eq i32 %41, %46
  br i1 %47, label %48, label %54

48:                                               ; preds = %36
  %49 = load i32, i32* %3, align 4
  %50 = sext i32 %49 to i64
  %51 = getelementptr inbounds [100001 x i32], [100001 x i32]* %9, i64 0, i64 %50
  %52 = load i32, i32* %51, align 4
  %53 = add nsw i32 %52, 1
  store i32 %53, i32* %51, align 4
  br label %54

54:                                               ; preds = %48, %36
  br label %55

55:                                               ; preds = %54
  %56 = load i32, i32* %4, align 4
  %57 = add nsw i32 %56, 1
  store i32 %57, i32* %4, align 4
  br label %31

58:                                               ; preds = %31
  br label %59

59:                                               ; preds = %58
  %60 = load i32, i32* %3, align 4
  %61 = add nsw i32 %60, 1
  store i32 %61, i32* %3, align 4
  br label %25

62:                                               ; preds = %25
  store i32 0, i32* %6, align 4
  store i32 0, i32* %7, align 4
  br label %63

63:                                               ; preds = %84, %62
  %64 = load i32, i32* %7, align 4
  %65 = load i32, i32* %8, align 4
  %66 = sub nsw i32 %65, 1
  %67 = icmp sle i32 %64, %66
  br i1 %67, label %68, label %87

68:                                               ; preds = %63
  %69 = load i32, i32* %7, align 4
  %70 = sext i32 %69 to i64
  %71 = getelementptr inbounds [100001 x i32], [100001 x i32]* %9, i64 0, i64 %70
  %72 = load i32, i32* %71, align 4
  %73 = icmp eq i32 %72, 1
  br i1 %73, label %74, label %83

74:                                               ; preds = %68
  %75 = load i32, i32* %7, align 4
  %76 = sext i32 %75 to i64
  %77 = getelementptr inbounds [100001 x i8], [100001 x i8]* %10, i64 0, i64 %76
  %78 = load i8, i8* %77, align 1
  %79 = sext i8 %78 to i32
  %80 = call i32 (i8*, ...) @printf(i8* getelementptr inbounds ([4 x i8], [4 x i8]* @.str.2, i64 0, i64 0), i32 %79)
  %81 = load i32, i32* %6, align 4
  %82 = add nsw i32 %81, 1
  store i32 %82, i32* %6, align 4
  br label %87

83:                                               ; preds = %68
  br label %84

84:                                               ; preds = %83
  %85 = load i32, i32* %7, align 4
  %86 = add nsw i32 %85, 1
  store i32 %86, i32* %7, align 4
  br label %63

87:                                               ; preds = %74, %63
  %88 = load i32, i32* %6, align 4
  %89 = icmp eq i32 %88, 0
  br i1 %89, label %90, label %92

90:                                               ; preds = %87
  %91 = call i32 (i8*, ...) @printf(i8* getelementptr inbounds ([4 x i8], [4 x i8]* @.str.3, i64 0, i64 0))
  br label %92

92:                                               ; preds = %90, %87
  br label %93

93:                                               ; preds = %92
  %94 = load i32, i32* %2, align 4
  %95 = add nsw i32 %94, 1
  store i32 %95, i32* %2, align 4
  br label %12

96:                                               ; preds = %12
  %97 = load i32, i32* %1, align 4
  ret i32 %97
}

declare dso_local i32 @__isoc99_scanf(i8*, ...) #1

; Function Attrs: argmemonly nounwind willreturn
declare void @llvm.memset.p0i8.i64(i8* nocapture writeonly, i8, i64, i1 immarg) #2

; Function Attrs: nounwind readonly
declare dso_local i64 @strlen(i8*) #3

declare dso_local i32 @printf(i8*, ...) #1


!llvm.module.flags = !{!0}
!llvm.ident = !{!1}

!0 = !{i32 1, !"wchar_size", i32 4}
!1 = !{!"clang version 10.0.0-4ubuntu1 "}
